; Function Attrs: mustprogress nofree norecurse nosync nounwind memory(read, argmem: readwrite, inaccessiblemem: none) uwtable
define void @_ZN16FragmentedWindow8CopyDataEPhmm(ptr nocapture noundef nonnull readonly align 8 dereferenceable(512) %0, ptr nocapture noundef writeonly %1, i64 noundef %2, i64 noundef %3) local_unnamed_addr #16 align 2 {
  %.not = icmp eq i64 %3, 0
  br i1 %.not, label %._crit_edge, label %.lr.ph

.lr.ph:                                           ; preds = %4
  %5 = getelementptr inbounds i8, ptr %0, i64 256
  br label %6

6:                                                ; preds = %.lr.ph, %_ZN16FragmentedWindowixEm.exit
  %.08 = phi i64 [ 0, %.lr.ph ], [ %30, %_ZN16FragmentedWindowixEm.exit ]
  %7 = add i64 %.08, %2
  %8 = load i64, ptr %5, align 8
  %9 = icmp ugt i64 %8, %7
  br i1 %9, label %10, label %.preheader.i

10:                                               ; preds = %6
  %11 = load ptr, ptr %0, align 8
  %12 = getelementptr inbounds i8, ptr %11, i64 %7
  br label %_ZN16FragmentedWindowixEm.exit

.preheader.i:                                     ; preds = %6, %25
  %indvars.iv.i = phi i64 [ %indvars.iv.next.i, %25 ], [ 1, %6 ]
  %13 = getelementptr inbounds [32 x i64], ptr %5, i64 0, i64 %indvars.iv.i
  %14 = load i64, ptr %13, align 8
  %15 = icmp ugt i64 %14, %7
  br i1 %15, label %16, label %25

16:                                               ; preds = %.preheader.i
  %17 = getelementptr inbounds [32 x ptr], ptr %0, i64 0, i64 %indvars.iv.i
  %18 = load ptr, ptr %17, align 8
  %19 = add nuw i64 %indvars.iv.i, 4294967295
  %20 = and i64 %19, 4294967295
  %21 = getelementptr inbounds [32 x i64], ptr %5, i64 0, i64 %20
  %22 = load i64, ptr %21, align 8
  %23 = sub i64 %7, %22
  %24 = getelementptr inbounds i8, ptr %18, i64 %23
  br label %_ZN16FragmentedWindowixEm.exit

25:                                               ; preds = %.preheader.i
  %indvars.iv.next.i = add nuw nsw i64 %indvars.iv.i, 1
  %exitcond.not.i = icmp eq i64 %indvars.iv.next.i, 32
  br i1 %exitcond.not.i, label %26, label %.preheader.i, !llvm.loop !92

26:                                               ; preds = %25
  %27 = load ptr, ptr %0, align 8
  br label %_ZN16FragmentedWindowixEm.exit

_ZN16FragmentedWindowixEm.exit:                   ; preds = %10, %16, %26
  %.010.i = phi ptr [ %12, %10 ], [ %24, %16 ], [ %27, %26 ]
  %28 = load i8, ptr %.010.i, align 1
  %29 = getelementptr inbounds i8, ptr %1, i64 %.08
  store i8 %28, ptr %29, align 1
  %30 = add nuw i64 %.08, 1
  %exitcond.not = icmp eq i64 %30, %3
  br i1 %exitcond.not, label %._crit_edge, label %6, !llvm.loop !104

._crit_edge:                                      ; preds = %_ZN16FragmentedWindowixEm.exit, %4
  ret void
}